EXPORTS
 "_BGGM_beta_helper_fast"
 "_BGGM_copula"
 "_BGGM_correlation"
 "_BGGM_hamming_distance"
 "_BGGM_KL_divergnece_mvn"
 "_BGGM_KL_univariate"
 "_BGGM_mv_binary"
 "_BGGM_mv_continuous"
 "_BGGM_mv_ordinal_albert"
 "_BGGM_mv_ordinal_cowles"
 "_BGGM_my_dnorm"
 "_BGGM_pcor_to_cor_internal"
 "_BGGM_ppc_helper_fast"
 "_BGGM_ppc_helper_nodewise_fast"
 "_BGGM_pred_helper_latent"
 "_BGGM_predictability_helper"
 "_BGGM_remove_col"
 "_BGGM_remove_row"
 "_BGGM_sample_prior"
 "_BGGM_select_col"
 "_BGGM_select_row"
 "_BGGM_Sigma_i_not_i"
 "_BGGM_sum_squares"
 "_BGGM_Theta_continuous"
 "_BGGM_trunc_mvn"
 "_Z13get_last_callv"
 "_Z14make_conditionRKSsP7SEXPRECS2_S2_"
 "_Z19string_to_try_errorRKSs"
 "_Z29rcpp_exception_to_r_conditionRKN4Rcpp9exceptionE"
 "_Z31exception_to_condition_templateISt9exceptionEP7SEXPRECRKT_b"
 "_ZGVN4arma5DatumIdE3nanE"
 "_ZGVN4arma5DatumIiE3nanE"
 "_ZGVZ20rcpp_get_stack_tracevE3fun"
 "_ZGVZ20rcpp_set_stack_traceP7SEXPRECE3fun"
 "_ZGVZ7dataptrP7SEXPRECE3fun"
 "_ZGVZ8demangleRKSsE3fun"
 "_ZGVZN4Rcpp8internal12exitRNGScopeEvE3fun"
 "_ZGVZN4Rcpp8internal13enterRNGScopeEvE3fun"
 "_ZN10tinyformat6detail10formatImplERSoPKcPKNS0_9FormatArgEi"
 "_ZN10tinyformat6detail15formatTruncatedIiEEvRSoRKT_i"
 "_ZN10tinyformat6detail21streamStateFromFormatERSoRbRiPKcPKNS0_9FormatArgES3_i"
 "_ZN10tinyformat6detail9FormatArg10formatImplIiEEvRSoPKcS5_iPKv"
 "_ZN10tinyformat6detail9FormatArg10formatImplIPKcEEvRSoS4_S4_iPKv"
 "_ZN10tinyformat6detail9FormatArg9toIntImplIiEEiPKv"
 "_ZN10tinyformat6detail9FormatArg9toIntImplIPKcEEiPKv"
 "_ZN10tinyformat6formatIIEEESsPKcDpRKT_"
 "_ZN10tinyformat6formatIIiEEESsPKcDpRKT_"
 "_ZN10tinyformat6formatIIPKcS2_EEESsS2_DpRKT_"
 "_ZN4arma3MatIdED1Ev"
 "_ZN4arma3MatIdED2Ev"
 "_ZN4arma4CubeIdED1Ev"
 "_ZN4arma5DatumIdE3nanE"
 "_ZN4arma5DatumIiE3nanE"
 "_ZN4Rcpp10eval_errorD0Ev"
 "_ZN4Rcpp10eval_errorD1Ev"
 "_ZN4Rcpp10RstreambufILb0EE4syncEv"
 "_ZN4Rcpp10RstreambufILb0EE6xsputnEPKcx"
 "_ZN4Rcpp10RstreambufILb0EE8overflowEi"
 "_ZN4Rcpp10RstreambufILb0EED0Ev"
 "_ZN4Rcpp10RstreambufILb0EED1Ev"
 "_ZN4Rcpp10RstreambufILb1EE4syncEv"
 "_ZN4Rcpp10RstreambufILb1EE6xsputnEPKcx"
 "_ZN4Rcpp10RstreambufILb1EE8overflowEi"
 "_ZN4Rcpp10RstreambufILb1EED0Ev"
 "_ZN4Rcpp10RstreambufILb1EED1Ev"
 "_ZN4Rcpp12not_a_matrixD0Ev"
 "_ZN4Rcpp12not_a_matrixD1Ev"
 "_ZN4Rcpp13RcppArmadillo9arma_wrapIN4arma3ColIdEEEEP7SEXPRECRKT_RKNS_9DimensionE"
 "_ZN4Rcpp13RcppArmadillo9arma_wrapIN4arma3MatIdEEEEP7SEXPRECRKT_RKNS_9DimensionE"
 "_ZN4Rcpp14not_compatibleC1IIiEEEPKcDpOT_"
 "_ZN4Rcpp14not_compatibleC1IIPKcS3_EEES3_DpOT_"
 "_ZN4Rcpp14not_compatibleD0Ev"
 "_ZN4Rcpp14not_compatibleD1Ev"
 "_ZN4Rcpp20AttributeProxyPolicyINS_12RObject_ImplINS_15PreserveStorageEEEE14AttributeProxyaSINS_9DimensionEEERS5_RKT_"
 "_ZN4Rcpp4stopERKSs"
 "_ZN4Rcpp4stopIIEEEvPKcDpOT_"
 "_ZN4Rcpp4wrapIdEEP7SEXPRECRKN4arma3ColIT_EE"
 "_ZN4Rcpp4wrapIdEEP7SEXPRECRKN4arma3MatIT_EE"
 "_ZN4Rcpp6r_castILi13EEEP7SEXPRECS2_"
 "_ZN4Rcpp6r_castILi14EEEP7SEXPRECS2_"
 "_ZN4Rcpp6traits14MatrixExporterIN4arma3MatIdEEdE3getEv"
 "_ZN4Rcpp8internal10basic_castILi10EEEP7SEXPRECS3_"
 "_ZN4Rcpp8internal10basic_castILi13EEEP7SEXPRECS3_"
 "_ZN4Rcpp8internal10basic_castILi14EEEP7SEXPRECS3_"
 "_ZN4Rcpp8internal10resumeJumpEP7SEXPREC"
 "_ZN4Rcpp8internal12exitRNGScopeEv"
 "_ZN4Rcpp8internal12primitive_asIbEET_P7SEXPREC"
 "_ZN4Rcpp8internal12primitive_asIfEET_P7SEXPREC"
 "_ZN4Rcpp8internal12primitive_asIiEET_P7SEXPREC"
 "_ZN4Rcpp8internal13enterRNGScopeEv"
 "_ZN4Rcpp8internal21export_indexing__implIN4arma3ColIdEEdEEvP7SEXPRECRT_NS_6traits17integral_constantIbLb0EEE"
 "_ZN4Rcpp8internal21export_indexing__implIN4arma3MatIdEEdEEvP7SEXPRECRT_NS_6traits17integral_constantIbLb0EEE"
 "_ZN4Rcpp8internal21export_indexing__implIN4arma3RowIdEEdEEvP7SEXPRECRT_NS_6traits17integral_constantIbLb0EEE"
 "_ZN4Rcpp8internal3nthEP7SEXPRECi"
 "_ZN4Rcpp8RostreamILb0EED0Ev"
 "_ZN4Rcpp8RostreamILb0EED1Ev"
 "_ZN4Rcpp8RostreamILb1EED0Ev"
 "_ZN4Rcpp8RostreamILb1EED1Ev"
 "_ZN4Rcpp9exceptionD0Ev"
 "_ZN4Rcpp9exceptionD1Ev"
 "_ZN4Rcpp9Rcpp_evalEP7SEXPRECS1_"
 "_ZNK10tinyformat6detail9FormatArg5toIntEv"
 "_ZNK4Rcpp10eval_error4whatEv"
 "_ZNK4Rcpp12not_a_matrix4whatEv"
 "_ZNK4Rcpp14not_compatible4whatEv"
 "_ZNK4Rcpp9exception21copy_stack_trace_to_rEv"
 "_ZNK4Rcpp9exception4whatEv"
 "_ZNKSt5ctypeIcE8do_widenEc"
 "_ZNSt15basic_stringbufIcSt11char_traitsIcESaIcEED1Ev"
 "_ZTCN4Rcpp8RostreamILb0EEE0_So"
 "_ZTCN4Rcpp8RostreamILb1EEE0_So"
 "_ZTIN4Rcpp10eval_errorE"
 "_ZTIN4Rcpp10RstreambufILb0EEE"
 "_ZTIN4Rcpp10RstreambufILb1EEE"
 "_ZTIN4Rcpp12not_a_matrixE"
 "_ZTIN4Rcpp14not_compatibleE"
 "_ZTIN4Rcpp17LongjumpExceptionE"
 "_ZTIN4Rcpp8internal20InterruptedExceptionE"
 "_ZTIN4Rcpp8RostreamILb0EEE"
 "_ZTIN4Rcpp8RostreamILb1EEE"
 "_ZTIN4Rcpp9exceptionE"
 "_ZTISt11logic_error"
 "_ZTISt9bad_alloc"
 "_ZTISt9exception"
 "_ZTSN4Rcpp10eval_errorE"
 "_ZTSN4Rcpp10RstreambufILb0EEE"
 "_ZTSN4Rcpp10RstreambufILb1EEE"
 "_ZTSN4Rcpp12not_a_matrixE"
 "_ZTSN4Rcpp14not_compatibleE"
 "_ZTSN4Rcpp17LongjumpExceptionE"
 "_ZTSN4Rcpp8internal20InterruptedExceptionE"
 "_ZTSN4Rcpp8RostreamILb0EEE"
 "_ZTSN4Rcpp8RostreamILb1EEE"
 "_ZTSN4Rcpp9exceptionE"
 "_ZTSSt11logic_error"
 "_ZTSSt9bad_alloc"
 "_ZTSSt9exception"
 "_ZTTN4Rcpp8RostreamILb0EEE"
 "_ZTTN4Rcpp8RostreamILb1EEE"
 "_ZTv0_n24_N4Rcpp8RostreamILb0EED0Ev"
 "_ZTv0_n24_N4Rcpp8RostreamILb0EED1Ev"
 "_ZTv0_n24_N4Rcpp8RostreamILb1EED0Ev"
 "_ZTv0_n24_N4Rcpp8RostreamILb1EED1Ev"
 "_ZTVN4Rcpp10eval_errorE"
 "_ZTVN4Rcpp10RstreambufILb0EEE"
 "_ZTVN4Rcpp10RstreambufILb1EEE"
 "_ZTVN4Rcpp12not_a_matrixE"
 "_ZTVN4Rcpp14not_compatibleE"
 "_ZTVN4Rcpp8RostreamILb0EEE"
 "_ZTVN4Rcpp8RostreamILb1EEE"
 "_ZTVN4Rcpp9exceptionE"
 "_ZZ20rcpp_get_stack_tracevE3fun"
 "_ZZ20rcpp_set_stack_traceP7SEXPRECE3fun"
 "_ZZ7dataptrP7SEXPRECE3fun"
 "_ZZ8demangleRKSsE3fun"
 "_ZZN4arma16arma_cerr_streamIcEERSoPSoE11cerr_stream"
 "_ZZN4Rcpp8internal12exitRNGScopeEvE3fun"
 "_ZZN4Rcpp8internal13enterRNGScopeEvE3fun"
 "R_init_BGGM"
 "_Z10remove_colN4arma3MatIdEEi"
 "_Z10remove_rowN4arma3MatIdEEi"
 "_Z10select_colN4arma3MatIdEEi"
 "_Z10select_rowN4arma3MatIdEEi"
 "_Z11correlationN4arma3MatIdEES1_"
 "_Z11sum_squaresN4arma3MatIdEES1_"
 "_Z12sample_priorN4arma3MatIdEEiffiib"
 "_Z13KL_univariateff"
 "_Z13mv_continuousN4arma3MatIdEES1_ffiS1_b"
 "_Z13Sigma_i_not_iN4arma3MatIdEEi"
 "_Z15ppc_helper_fastN4arma4CubeIdEEiiiffbbb"
 "_Z16beta_helper_fastN4arma4CubeIdEENS_3MatIdEEii"
 "_Z16hamming_distanceN4arma3MatIdEES1_fffif"
 "_Z16Theta_continuousN4arma3MatIdEEiffiiS1_b"
 "_Z17KL_divergnece_mvnN4arma3MatIdEES1_"
 "_Z17mv_ordinal_albertN4arma3MatIdEES1_iffiS1_b"
 "_Z17mv_ordinal_cowlesN4arma3MatIdEES1_ffif"
 "_Z18pred_helper_latentN4arma3MatIdEENS_4CubeIdEES1_NS_3ColIdEEii"
 "_Z20pcor_to_cor_internalN4arma4CubeIdEEi"
 "_Z21predictability_helperN4arma3MatIdEENS_3ColIdEENS_4CubeIdEES1_ii"
 "_Z24ppc_helper_nodewise_fastN4arma4CubeIdEEiii"
 "_Z6copulaN4arma3MatIdEES1_NS_3ColIdEES1_iffS3_b"
 "_Z8my_dnormN4arma3ColIdEES1_S1_"
 "_Z9mv_binaryN4arma3MatIdEES1_ffifNS_3RowIdEES1_b"
 "_Z9trunc_mvnN4arma3MatIdEES1_S1_S1_NS_3RowIdEE"
 "_ZGVN4arma5DatumIdE3infE"
 "_ZGVN4arma5DatumIdE3nanE"
 "_ZGVN4arma5DatumIiE3nanE"
 "_ZGVZ7dataptrP7SEXPRECE3fun"
 "_ZGVZN8Progress20default_progress_barEvE2pb"
 "_ZN10tinyformat6detail10formatImplERSoPKcPKNS0_9FormatArgEi"
 "_ZN10tinyformat6detail15formatTruncatedISsEEvRSoRKT_i"
 "_ZN10tinyformat6detail21streamStateFromFormatERSoRbRiPKcPKNS0_9FormatArgES3_i"
 "_ZN10tinyformat6detail9FormatArg10formatImplIPKcEEvRSoS4_S4_iPKv"
 "_ZN10tinyformat6detail9FormatArg10formatImplISsEEvRSoPKcS5_iPKv"
 "_ZN10tinyformat6detail9FormatArg9toIntImplIPKcEEiPKv"
 "_ZN10tinyformat6detail9FormatArg9toIntImplISsEEiPKv"
 "_ZN10tinyformat6formatIIEEESsPKcDpRKT_"
 "_ZN10tinyformat6formatIIPKcS2_EEESsS2_DpRKT_"
 "_ZN10tinyformat6formatIISsEEESsPKcDpRKT_"
 "_ZN17SimpleProgressBar11end_displayEv"
 "_ZN17SimpleProgressBar6updateEf"
 "_ZN17SimpleProgressBar7displayEv"
 "_ZN17SimpleProgressBarD0Ev"
 "_ZN17SimpleProgressBarD1Ev"
 "_ZN4arma10arma_checkIA32_cEEvbRKT_"
 "_ZN4arma10arma_checkIA37_cEEvbRKT_"
 "_ZN4arma10eglue_coreINS_10eglue_plusEE5applyINS_3MatIdEENS_11subview_rowIdEENS_3eOpINS_3ColIdEENS_16eop_scalar_timesEEEEEvRT_RKNS_5eGlueIT0_T1_S1_EE"
 "_ZN4arma10eglue_coreINS_10eglue_plusEE5applyINS_3MatIdEENS_2OpINS_11subview_colIdEENS_9op_htransEEENS_4GlueINSB_IS5_NS6_IS5_NS_6op_invEEENS_10glue_timesEEENS_5eGlueINS6_IS5_S9_EESH_NS_11eglue_minusEEESE_EEEEvRT_RKNSG_IT0_T1_S1_EE"
 "_ZN4arma10eglue_coreINS_11eglue_minusEE5applyINS_3MatIdEENS_11subview_colIdEENS_4GlueINS8_IS5_NS_2OpIS5_NS_6op_invEEENS_10glue_timesEEENS9_IS5_NS_9op_htransEEESC_EEEEvRT_RKNS_5eGlueIT0_T1_S1_EE"
 "_ZN4arma10eglue_coreINS_11eglue_minusEE5applyINS_3MatIdEENS_5eGlueINS_4GlueINS_2OpIS5_NS_9op_htransEEES5_NS_10glue_timesEEES5_NS_10eglue_plusEEENS7_ISC_S5_SB_EEEEvRT_RKNS6_IT0_T1_S1_EE"
 "_ZN4arma10eglue_coreINS_9eglue_divEE5applyINS_3MatIdEENS_3eOpIS5_NS_7eop_negEEES5_EEvRT_RKNS_5eGlueIT0_T1_S1_EE"
 "_ZN4arma10glue_times5applyIdLb0ELb0ELb0ENS_3MatIdEES3_EEvRNS2_IT_EERKT3_RKT4_S4_"
 "_ZN4arma10glue_times5applyIdLb0ELb1ELb0ENS_3ColIdEES3_EEvRNS_3MatIT_EERKT3_RKT4_S5_"
 "_ZN4arma10glue_times5applyIdLb0ELb1ELb0ENS_3MatIdEES3_EEvRNS2_IT_EERKT3_RKT4_S4_"
 "_ZN4arma10glue_times5applyIdLb1ELb0ELb0ENS_3MatIdEES3_EEvRNS2_IT_EERKT3_RKT4_S4_"
 "_ZN4arma10op_reshape12apply_unwrapIdEEvRNS_3MatIT_EERKS4_jjj"
 "_ZN4arma10op_wishrnd12apply_directINS_2OpINS_5eGlueINS_3MatIdEES5_NS_10eglue_plusEEENS_6op_invEEEEEbRNS4_INT_9elem_typeEEERKNS_4BaseISB_SA_EESB_j"
 "_ZN4arma10op_wishrnd19apply_noalias_mode1IdEEbRNS_3MatIT_EERKS4_S3_"
 "_ZN4arma10op_wishrnd19apply_noalias_mode2IdEEbRNS_3MatIT_EERKS4_S3_"
 "_ZN4arma10op_wishrnd5applyINS_2OpINS_3MatIdEENS_6op_invEEEEEvRNS3_INT_9elem_typeEEERKNS2_IS7_S0_EE"
 "_ZN4arma10op_wishrnd5applyINS_2OpINS_5eGlueINS_3MatIdEES5_NS_10eglue_plusEEENS_6op_invEEEEEvRNS4_INT_9elem_typeEEERKNS2_ISA_S0_EE"
 "_ZN4arma11glue_mvnrnd13apply_noaliasIdEEbRNS_3MatIT_EERKS4_S7_j"
 "_ZN4arma11subview_colIdEaSEd"
 "_ZN4arma11subview_colIdEC1ERKNS_3MatIdEEj"
 "_ZN4arma11syrk_helper35inplace_copy_upper_tri_to_lower_triIdEEvRNS_3MatIT_EE"
 "_ZN4arma12unwrap_checkINS_3MatIdEEED1Ev"
 "_ZN4arma13glue_quantile6workerIddEEvPT0_RNS_3ColIT_EERKNS_3MatIS2_EE"
 "_ZN4arma13subview_elem1IdNS_3MatIjEEE7extractERNS1_IdEERKS3_"
 "_ZN4arma13subview_elem1IdNS_4mtOpIjNS1_IjNS_11subview_colIdEENS_9op_rel_eqEEENS_14op_find_simpleEEEE7extractERNS_3MatIdEERKS8_"
 "_ZN4arma15gemm_emul_largeILb0ELb0ELb0ELb0EE5applyIdNS_3MatIdEES4_EEvRNS3_IT_EERKT0_RKT1_S5_S5_"
 "_ZN4arma15glue_times_diag5applyINS_3MatIdEENS_2OpINS_3eOpINS_3ColIdEENS_8eop_sqrtEEENS_10op_diagmatEEEEEvRNS2_INT_9elem_typeEEERKNS_4GlueISC_T0_S0_EE"
 "_ZN4arma15glue_times_diag5applyINS_4GlueINS_2OpINS_3eOpINS4_INS_8diagviewIdEENS_8eop_sqrtEEENS_18eop_scalar_div_preEEENS_10op_diagmatEEENS_3MatIdEES0_EESC_EEvRNSD_INT_9elem_typeEEERKNS2_ISG_T0_S0_EE"
 "_ZN4arma16gemm_emul_tinysqILb0ELb0ELb0EE5applyIdNS_3MatIdEES4_EEvRNS3_IT_EERKT0_RKT1_S5_S5_"
 "_ZN4arma16gemv_emul_tinysqILb0ELb0ELb0EE5applyIdNS_3ColIdEEEEvPT_RKT0_PKS5_S5_S5_"
 "_ZN4arma16gemv_emul_tinysqILb0ELb0ELb0EE5applyIdNS_3MatIdEEEEvPT_RKT0_PKS5_S5_S5_"
 "_ZN4arma16gemv_emul_tinysqILb1ELb0ELb0EE5applyIdNS_3ColIdEEEEvPT_RKT0_PKS5_S5_S5_"
 "_ZN4arma16gemv_emul_tinysqILb1ELb0ELb0EE5applyIdNS_3MatIdEEEEvPT_RKT0_PKS5_S5_S5_"
 "_ZN4arma17subview_each1_aux14operator_minusINS_3MatIdEELj1ENS_2OpIS3_NS_7op_meanEEEEENS2_INT_9elem_typeEEERKNS_13subview_each1IS7_XT0_EEERKNS_4BaseIS8_T1_EE"
 "_ZN4arma18unwrap_check_mixedINS_3MatIdEEED1Ev"
 "_ZN4arma18unwrap_check_mixedINS_3MatIjEEED1Ev"
 "_ZN4arma20partial_unwrap_checkINS_3MatIdEEED1Ev"
 "_ZN4arma23arma_assert_cube_as_matIdNS_4CubeIdEEEEvRKNS_3MatIT_EERKT0_PKcb"
 "_ZN4arma27glue_times_redirect2_helperILb0EE5applyINS_2OpINS_3MatIdEENS_9op_htransEEES5_EEvRNS4_INT_9elem_typeEEERKNS_4GlueIS8_T0_NS_10glue_timesEEE"
 "_ZN4arma27glue_times_redirect2_helperILb0EE5applyINS_3MatIdEENS_2OpINS_4GlueIS4_NS5_IS4_NS_6op_invEEENS_10glue_timesEEENS_9op_htransEEEEEvRNS3_INT_9elem_typeEEERKNS6_ISD_T0_S9_EE"
 "_ZN4arma27glue_times_redirect2_helperILb0EE5applyINS_3MatIdEES4_EEvRNS3_INT_9elem_typeEEERKNS_4GlueIS5_T0_NS_10glue_timesEEE"
 "_ZN4arma27glue_times_redirect3_helperILb0EE5applyINS_3MatIdEENS_2OpIS4_NS_9op_htransEEES4_EEvRNS3_INT_9elem_typeEEERKNS_4GlueINSC_IS8_T0_NS_10glue_timesEEET1_SE_EE"
 "_ZN4arma27glue_times_redirect3_helperILb1EE5applyINS_3MatIdEENS_2OpIS4_NS_6op_invEEENS_5eGlueINS5_IS4_NS_9op_htransEEESA_NS_11eglue_minusEEEEEvRNS3_INT_9elem_typeEEERKNS_4GlueINSH_ISD_T0_NS_10glue_timesEEET1_SJ_EE"
 "_ZN4arma27glue_times_redirect3_helperILb1EE5applyINS_3MatIdEENS_2OpIS4_NS_6op_invEEENS5_IS4_NS_9op_htransEEEEEvRNS3_INT_9elem_typeEEERKNS_4GlueINSE_ISA_T0_NS_10glue_timesEEET1_SG_EE"
 "_ZN4arma3ColIdEC1ERKS1_"
 "_ZN4arma3ColIdEC1INS_2OpINS_11subview_colIdEENS_13op_unique_vecEEEEERKNS_4BaseIdT_EE"
 "_ZN4arma3MatIdE10soft_resetEv"
 "_ZN4arma3MatIdE3eyeEv"
 "_ZN4arma3MatIdE5resetEv"
 "_ZN4arma3MatIdE5zerosEjj"
 "_ZN4arma3MatIdE8shed_colEj"
 "_ZN4arma3MatIdE8shed_rowEj"
 "_ZN4arma3MatIdE9init_coldEv"
 "_ZN4arma3MatIdE9init_warmEjj"
 "_ZN4arma3MatIdE9shed_colsEjj"
 "_ZN4arma3MatIdE9shed_rowsEjj"
 "_ZN4arma3MatIdE9steal_memERS1_"
 "_ZN4arma3MatIdEaSERKNS_7subviewIdEE"
 "_ZN4arma3MatIdEaSERKS1_"
 "_ZN4arma3MatIdEaSINS_11subview_colIdEENS_4GlueINS5_IS1_NS_2OpIS1_NS_6op_invEEENS_10glue_timesEEENS6_IS1_NS_9op_htransEEES9_EENS_11eglue_minusEEERS1_RKNS_5eGlueIT_T0_T1_EE"
 "_ZN4arma3MatIdEaSINS_5eGlueINS_4GlueINS_2OpIS1_NS_9op_htransEEES1_NS_10glue_timesEEES1_NS_10eglue_plusEEENS4_IS9_S1_S8_EENS_11eglue_minusEEERS1_RKNS3_IT_T0_T1_EE"
 "_ZN4arma3MatIdEaSINS_5eGlueIS1_S1_NS_11eglue_minusEEENS_7eop_negEEERS1_RKNS_3eOpIT_T0_EE"
 "_ZN4arma3MatIdEaSINS_6OpCubeINS_12subview_cubeIdEENS_7op_meanEEEEERS1_RKNS_8BaseCubeIdT_EE"
 "_ZN4arma3MatIdEaSINS_6OpCubeINS_4CubeIdEENS_7op_meanEEEEERS1_RKNS_8BaseCubeIdT_EE"
 "_ZN4arma3MatIdEC1EOS1_"
 "_ZN4arma3MatIdEC1ERKS1_"
 "_ZN4arma3MatIdEC1INS_4GlueINS_2OpIS1_NS_9op_htransEEES1_NS_10glue_timesEEENS_3eOpIS1_NS_16eop_scalar_timesEEENS_10eglue_plusEEERKNS_5eGlueIT_T0_T1_EE"
 "_ZN4arma3MatIdEC1IS1_NS_16eop_scalar_timesEEERKNS_3eOpIT_T0_EE"
 "_ZN4arma3MatIdEC1IS1_S1_NS_10eglue_plusEEERKNS_5eGlueIT_T0_T1_EE"
 "_ZN4arma3MatIdEC1IS1_S1_NS_11eglue_minusEEERKNS_5eGlueIT_T0_T1_EE"
 "_ZN4arma3MatIdED1Ev"
 "_ZN4arma3MatIdED2Ev"
 "_ZN4arma3MatIjE13steal_mem_colERS1_j"
 "_ZN4arma3MatIjE5resetEv"
 "_ZN4arma3MatIjE9init_coldEv"
 "_ZN4arma3MatIjE9init_warmEjj"
 "_ZN4arma3MatIjED1Ev"
 "_ZN4arma3MatIjED2Ev"
 "_ZN4arma4CubeIdE5sliceEj"
 "_ZN4arma4CubeIdE5zerosEjjj"
 "_ZN4arma4CubeIdE9init_coldEv"
 "_ZN4arma4CubeIdE9init_warmEjjj"
 "_ZN4arma4CubeIdEC1IS1_NS_9eop_atanhEEERKNS_7eOpCubeIT_T0_EE"
 "_ZN4arma4CubeIdED1Ev"
 "_ZN4arma4gemvILb0ELb0ELb0EE15apply_blas_typeIdNS_3MatIdEEEEvPT_RKT0_PKS5_S5_S5_"
 "_ZN4arma4gemvILb1ELb0ELb0EE15apply_blas_typeIdNS_3MatIdEEEEvPT_RKT0_PKS5_S5_S5_"
 "_ZN4arma5DatumIdE3infE"
 "_ZN4arma5DatumIdE3nanE"
 "_ZN4arma5DatumIiE3nanE"
 "_ZN4arma5ProxyINS_2OpINS_11subview_colIdEENS_9op_htransEEEED1Ev"
 "_ZN4arma5ProxyINS_4GlueINS_2OpINS_3MatIdEENS_9op_htransEEES4_NS_10glue_timesEEEEC1ERKS8_"
 "_ZN4arma5ProxyINS_4GlueINS1_INS_2OpINS_3MatIdEENS_9op_htransEEES4_NS_10glue_timesEEES4_S7_EEEC1ERKS9_"
 "_ZN4arma6auxlib10eig_sym_dcIdEEbRNS_3ColIT_EERNS_3MatIS3_EERKS7_"
 "_ZN4arma6auxlib11det_tinymatIdEET_RKNS_3MatIS2_EEj"
 "_ZN4arma6auxlib17solve_square_fastINS_3MatIdEEEEbRNS2_INT_9elem_typeEEES7_RKNS_4BaseIS5_S4_EE"
 "_ZN4arma6auxlib17solve_square_tinyINS_3MatIdEEEEbRNS2_INT_9elem_typeEEERKS6_RKNS_4BaseIS5_S4_EE"
 "_ZN4arma6auxlib21rudimentary_sym_checkIdEEbRKNS_3MatIT_EE"
 "_ZN4arma6auxlib3invIdEEbRNS_3MatIT_EERKS4_"
 "_ZN4arma6auxlib8inv_tinyIdEEbRNS_3MatIT_EERKS4_"
 "_ZN4arma6auxlib9inv_sympdIdNS_3MatIdEEEEbRNS2_IT_EERKNS_4BaseIS4_T0_EE"
 "_ZN4arma6op_cor5applyINS_3MatIdEEEEvRNS2_INT_9elem_typeEEERKNS_2OpIS4_S0_EE"
 "_ZN4arma6op_dot10direct_dotIdEENS_14arma_real_onlyIT_E6resultEjPKS3_S7_"
 "_ZN4arma6op_inv13apply_noaliasIdEEbRNS_3MatIT_EERKS4_"
 "_ZN4arma6op_inv5applyINS_2OpINS_3MatIdEENS_6op_covEEEEEvRNS3_INT_9elem_typeEEERKNS2_IS7_S0_EE"
 "_ZN4arma6op_max13apply_noaliasIdEEvRNS_3MatIT_EERKS4_jPKNS_11arma_not_cxIS3_E6resultE"
 "_ZN4arma6op_max3maxIdEET_RKNS_7subviewIS2_EE"
 "_ZN4arma6op_max3maxINS_13subview_elem1IdNS_4mtOpIjNS3_IjNS_11subview_colIdEENS_9op_rel_eqEEENS_14op_find_simpleEEEEEEENS_11arma_not_cxINT_9elem_typeEE6resultERKNS_4BaseISD_SC_EE"
 "_ZN4arma6op_min3minIdEET_RKNS_7subviewIS2_EE"
 "_ZN4arma6op_sum19apply_noalias_proxyINS_3eOpINS_3MatIdEENS_7eop_absEEEEEvRNS3_INT_9elem_typeEEERKNS_5ProxyIS7_EEj"
 "_ZN4arma6op_sum19apply_noalias_proxyINS_3eOpINS_5eGlueINS_3MatIdEES5_NS_11eglue_minusEEENS_10eop_squareEEEEEvRNS4_INT_9elem_typeEEERKNS_5ProxyISA_EEj"
 "_ZN4arma6op_var10direct_varIdEET_PKS2_jj"
 "_ZN4arma6op_var5applyINS_3MatIdEEEEvRNS2_INT_8pod_typeEEERKNS_4mtOpIS5_S4_S0_EE"
 "_ZN4arma7op_mean18direct_mean_robustIdEET_PKS2_j"
 "_ZN4arma7op_mean20apply_noalias_unwrapINS_12subview_cubeIdEEEEvRNS_4CubeINT_9elem_typeEEERKNS_9ProxyCubeIS5_EEj"
 "_ZN4arma7op_mean20apply_noalias_unwrapINS_3MatIdEEEEvRNS2_INT_9elem_typeEEERKNS_5ProxyIS4_EEj"
 "_ZN4arma7op_mean20apply_noalias_unwrapINS_4CubeIdEEEEvRNS2_INT_9elem_typeEEERKNS_9ProxyCubeIS4_EEj"
 "_ZN4arma7op_norm21vec_norm_2_direct_stdIdEET_RKNS_3MatIS2_EE"
 "_ZN4arma7subviewIdE10inplace_opINS_15op_internal_equEEEvRKS1_PKc"
 "_ZN4arma7subviewIdE10inplace_opINS_15op_internal_equENS_2OpINS_11subview_rowIdEENS_9op_repmatEEEEEvRKNS_4BaseIdT0_EEPKc"
 "_ZN4arma7subviewIdE10inplace_opINS_15op_internal_equENS_2OpINS_3ColIdEENS_9op_htransEEEEEvRKNS_4BaseIdT0_EEPKc"
 "_ZN4arma7subviewIdE10inplace_opINS_15op_internal_equENS_2OpINS_3MatIdEENS_9op_htransEEEEEvRKNS_4BaseIdT0_EEPKc"
 "_ZN4arma7subviewIdE10inplace_opINS_15op_internal_equENS_3eOpINS_3MatIdEENS_16eop_scalar_timesEEEEEvRKNS_4BaseIdT0_EEPKc"
 "_ZN4arma7subviewIdE10inplace_opINS_15op_internal_equENS_5eGlueINS_11subview_rowIdEENS_3eOpINS_3ColIdEENS_16eop_scalar_timesEEENS_10eglue_plusEEEEEvRKNS_4BaseIdT0_EEPKc"
 "_ZN4arma7subviewIdE3colEj"
 "_ZN4arma7subviewIdE7extractERNS_3MatIdEERKS1_"
 "_ZN4arma8arma_rng5randnIdE11fill_simpleEPdj"
 "_ZN4arma8arrayops10copy_smallIdEEvPT_PKS2_j"
 "_ZN4arma8arrayops10copy_smallIjEEvPT_PKS2_j"
 "_ZN4arma8arrayops11inplace_divIdEEvPT_S2_j"
 "_ZN4arma8arrayops11inplace_setIdEEvPT_S2_j"
 "_ZN4arma8arrayops12inplace_plusIdEEvPT_PKS2_j"
 "_ZN4arma8arrayops16inplace_div_baseIdEEvPT_PKS2_j"
 "_ZN4arma8arrayops17inplace_set_smallIdEEvPT_S2_j"
 "_ZN4arma8arrayops7replaceIdEEvPT_jS2_S2_"
 "_ZN4arma8eop_coreINS_18eop_scalar_div_preEE5applyINS_3MatIdEENS_3eOpINS_8diagviewIdEENS_8eop_sqrtEEEEEvRT_RKNS6_IT0_S1_EE"
 "_ZN4arma8eop_coreINS_18eop_scalar_div_preEE5applyINS_3MatIdEENS_8diagviewIdEEEEvRT_RKNS_3eOpIT0_S1_EE"
 "_ZN4arma8eop_coreINS_19eop_scalar_div_postEE5applyINS_3MatIdEENS_5eGlueIS5_NS_2OpINS_11subview_rowIdEENS_9op_repmatEEENS_11eglue_minusEEEEEvRT_RKNS_3eOpIT0_S1_EE"
 "_ZN4arma8eop_coreINS_7eop_negEE5applyINS_3MatIdEENS_5eGlueIS5_S5_NS_11eglue_minusEEEEEvRT_RKNS_3eOpIT0_S1_EE"
 "_ZN4arma8eop_coreINS_8eop_sqrtEE5applyINS_3MatIdEENS_3eOpINS6_INS6_IS5_NS_10eop_squareEEENS_20eop_scalar_minus_preEEENS_19eop_scalar_div_postEEEEEvRT_RKNS6_IT0_S1_EE"
 "_ZN4arma8eop_coreINS_8eop_sqrtEE5applyINS_3MatIdEENS_8diagviewIdEEEEvRT_RKNS_3eOpIT0_S1_EE"
 "_ZN4arma8glue_cor5applyINS_3MatIdEES3_EEvRNS2_INT_9elem_typeEEERKNS_4GlueIS4_T0_S0_EE"
 "_ZN4arma8podarrayIdE8copy_rowERKNS_3MatIdEEj"
 "_ZN4arma8podarrayIdE9init_coldEj"
 "_ZN4arma9glue_kron11direct_kronIdEEvRNS_3MatIT_EERKS4_S7_"
 "_ZN4arma9op_stddev5applyINS_3MatIdEEEEvRNS2_INT_8pod_typeEEERKNS_4mtOpIS5_S4_S0_EE"
 "_ZN4arma9op_strans11apply_proxyINS_11subview_rowIdEEEEvRNS_3MatINT_9elem_typeEEERKS5_"
 "_ZN4arma9op_strans12apply_directINS_4GlueINS_3MatIdEES4_NS_11glue_mvnrndEEEEEvRNS3_INT_9elem_typeEEERKS7_"
 "_ZN4arma9op_strans17apply_mat_inplaceIdEEvRNS_3MatIT_EE"
 "_ZN4arma9op_strans17apply_mat_noaliasIdNS_3MatIdEEEEvRNS2_IT_EERKT0_"
 "_ZN4arma9op_strans23apply_mat_noalias_largeIdEEvRNS_3MatIT_EERKS4_"
 "_ZN4arma9op_strans24apply_mat_noalias_tinysqIdNS_3ColIdEEEEvRNS_3MatIT_EERKT0_"
 "_ZN4arma9op_strans24apply_mat_noalias_tinysqIdNS_3MatIdEEEEvRNS2_IT_EERKT0_"
 "_ZN4arma9op_trimat5applyINS_3MatIdEEEEvRNS2_INT_9elem_typeEEERKNS_2OpIS4_S0_EE"
 "_ZN4arma9op_unique12apply_helperINS_11subview_colIdEEEEbRNS_3MatINT_9elem_typeEEERKNS_5ProxyIS5_EEb"
 "_ZN4arma9syrk_emulILb1ELb0ELb0EE5applyIdNS_3MatIdEEEEvRNS3_IT_EERKT0_S5_S5_"
 "_ZN4Rcpp10RstreambufILb0EE4syncEv"
 "_ZN4Rcpp10RstreambufILb0EE6xsputnEPKcx"
 "_ZN4Rcpp10RstreambufILb0EE8overflowEi"
 "_ZN4Rcpp10RstreambufILb0EED0Ev"
 "_ZN4Rcpp10RstreambufILb0EED1Ev"
 "_ZN4Rcpp10RstreambufILb1EE4syncEv"
 "_ZN4Rcpp10RstreambufILb1EE6xsputnEPKcx"
 "_ZN4Rcpp10RstreambufILb1EE8overflowEi"
 "_ZN4Rcpp10RstreambufILb1EED0Ev"
 "_ZN4Rcpp10RstreambufILb1EED1Ev"
 "_ZN4Rcpp12not_a_matrixD0Ev"
 "_ZN4Rcpp12not_a_matrixD1Ev"
 "_ZN4Rcpp13RcppArmadillo9arma_wrapIN4arma3ColIdEEEEP7SEXPRECRKT_RKNS_9DimensionE"
 "_ZN4Rcpp13RcppArmadillo9arma_wrapIN4arma3MatIdEEEEP7SEXPRECRKT_RKNS_9DimensionE"
 "_ZN4Rcpp13RcppArmadillo9arma_wrapIN4arma4CubeIdEEEEP7SEXPRECRKT_RKNS_9DimensionE"
 "_ZN4Rcpp14not_compatibleD0Ev"
 "_ZN4Rcpp14not_compatibleD1Ev"
 "_ZN4Rcpp15PreserveStorageINS_6VectorILi14ES0_EEE5set__EP7SEXPREC"
 "_ZN4Rcpp18checkUserInterruptEv"
 "_ZN4Rcpp18Rcpp_ReplaceObjectEP7SEXPRECS1_"
 "_ZN4Rcpp19index_out_of_boundsD0Ev"
 "_ZN4Rcpp19index_out_of_boundsD1Ev"
 "_ZN4Rcpp20AttributeProxyPolicyINS_12RObject_ImplINS_15PreserveStorageEEEE14AttributeProxyaSINS_9DimensionEEERS5_RKT_"
 "_ZN4Rcpp4stopERKSs"
 "_ZN4Rcpp4wrapIdEEP7SEXPRECRKN4arma3MatIT_EE"
 "_ZN4Rcpp5cloneINS_6VectorILi14ENS_15PreserveStorageEEEEET_RKS4_"
 "_ZN4Rcpp6r_castILi14EEEP7SEXPRECS2_"
 "_ZN4Rcpp6VectorILi19ENS_15PreserveStorageEE20push_back_name__implERKP7SEXPRECRKSsNS_6traits17integral_constantIbLb1EEE"
 "_ZN4Rcpp6VectorILi19ENS_15PreserveStorageEEC1Ev"
 "_ZN4Rcpp8internal10basic_castILi14EEEP7SEXPRECS3_"
 "_ZN4Rcpp8internal18generic_name_proxyILi19ENS_15PreserveStorageEE3setEP7SEXPREC"
 "_ZN4Rcpp8internal18generic_name_proxyILi19ENS_15PreserveStorageEEaSIN4arma3ColIdEEEERS3_RKT_"
 "_ZN4Rcpp8internal18generic_name_proxyILi19ENS_15PreserveStorageEEaSIN4arma3MatIdEEEERS3_RKT_"
 "_ZN4Rcpp8internal18generic_name_proxyILi19ENS_15PreserveStorageEEaSIN4arma4CubeIdEEEERS3_RKT_"
 "_ZN4Rcpp8internal21export_indexing__implIN4arma3MatIdEEdEEvP7SEXPRECRT_NS_6traits17integral_constantIbLb0EEE"
 "_ZN4Rcpp8internal34primitive_range_wrap__impl__nocastIPKddEEP7SEXPRECT_S6_St26random_access_iterator_tag"
 "_ZN4Rcpp8RostreamILb0EED0Ev"
 "_ZN4Rcpp8RostreamILb0EED1Ev"
 "_ZN4Rcpp8RostreamILb1EED0Ev"
 "_ZN4Rcpp8RostreamILb1EED1Ev"
 "_ZN4Rcpp9exceptionD0Ev"
 "_ZN4Rcpp9exceptionD1Ev"
 "_ZN8Progress20default_progress_barEv"
 "_ZN8ProgressC1EmbR11ProgressBar"
 "_ZNK10tinyformat6detail9FormatArg5toIntEv"
 "_ZNK4arma19subview_each_commonINS_3MatIdEELj0EE20incompat_size_stringERKS2_"
 "_ZNK4arma19subview_each_commonINS_3MatIdEELj1EE20incompat_size_stringERKS2_"
 "_ZNK4Rcpp12not_a_matrix4whatEv"
 "_ZNK4Rcpp14not_compatible4whatEv"
 "_ZNK4Rcpp19index_out_of_bounds4whatEv"
 "_ZNK4Rcpp9exception4whatEv"
 "_ZNKSt5ctypeIcE8do_widenEc"
 "_ZNSt15basic_stringbufIcSt11char_traitsIcESaIcEED1Ev"
 "_ZNSt18gamma_distributionIdEclISt23mersenne_twister_engineIyLy64ELy312ELy156ELy31ELy13043109905998158313ELy29ELy6148914691236517205ELy17ELy8202884508482404352ELy37ELy18444473444759240704ELy43ELy6364136223846793005EEEEdRT_RKNS0_10param_typeE"
 "_ZSt13__adjust_heapIPdxdN9__gnu_cxx5__ops15_Iter_comp_iterIN4arma22arma_unique_comparatorIdEEEEEvT_T0_S9_T1_T2_"
 "_ZSt13__adjust_heapIPdxdN9__gnu_cxx5__ops15_Iter_less_iterEEvT_T0_S5_T1_T2_"
 "_ZSt16__introsort_loopIPdxN9__gnu_cxx5__ops15_Iter_comp_iterIN4arma22arma_unique_comparatorIdEEEEEvT_S8_T0_T1_"
 "_ZSt18generate_canonicalIdLy53ESt23mersenne_twister_engineIyLy64ELy312ELy156ELy31ELy13043109905998158313ELy29ELy6148914691236517205ELy17ELy8202884508482404352ELy37ELy18444473444759240704ELy43ELy6364136223846793005EEET_RT1_"
 "_ZTCN4Rcpp8RostreamILb0EEE0_So"
 "_ZTCN4Rcpp8RostreamILb1EEE0_So"
 "_ZTI11ProgressBar"
 "_ZTI17SimpleProgressBar"
 "_ZTIN4Rcpp10RstreambufILb0EEE"
 "_ZTIN4Rcpp10RstreambufILb1EEE"
 "_ZTIN4Rcpp12not_a_matrixE"
 "_ZTIN4Rcpp14not_compatibleE"
 "_ZTIN4Rcpp19index_out_of_boundsE"
 "_ZTIN4Rcpp8internal20InterruptedExceptionE"
 "_ZTIN4Rcpp8RostreamILb0EEE"
 "_ZTIN4Rcpp8RostreamILb1EEE"
 "_ZTIN4Rcpp9exceptionE"
 "_ZTISt11logic_error"
 "_ZTISt11range_error"
 "_ZTISt13runtime_error"
 "_ZTISt9bad_alloc"
 "_ZTISt9exception"
 "_ZTS11ProgressBar"
 "_ZTS17SimpleProgressBar"
 "_ZTSN4Rcpp10RstreambufILb0EEE"
 "_ZTSN4Rcpp10RstreambufILb1EEE"
 "_ZTSN4Rcpp12not_a_matrixE"
 "_ZTSN4Rcpp14not_compatibleE"
 "_ZTSN4Rcpp19index_out_of_boundsE"
 "_ZTSN4Rcpp8internal20InterruptedExceptionE"
 "_ZTSN4Rcpp8RostreamILb0EEE"
 "_ZTSN4Rcpp8RostreamILb1EEE"
 "_ZTSN4Rcpp9exceptionE"
 "_ZTSSt11logic_error"
 "_ZTSSt11range_error"
 "_ZTSSt13runtime_error"
 "_ZTSSt9bad_alloc"
 "_ZTSSt9exception"
 "_ZTTN4Rcpp8RostreamILb0EEE"
 "_ZTTN4Rcpp8RostreamILb1EEE"
 "_ZTv0_n24_N4Rcpp8RostreamILb0EED0Ev"
 "_ZTv0_n24_N4Rcpp8RostreamILb0EED1Ev"
 "_ZTv0_n24_N4Rcpp8RostreamILb1EED0Ev"
 "_ZTv0_n24_N4Rcpp8RostreamILb1EED1Ev"
 "_ZTV17SimpleProgressBar"
 "_ZTVN4Rcpp10RstreambufILb0EEE"
 "_ZTVN4Rcpp10RstreambufILb1EEE"
 "_ZTVN4Rcpp12not_a_matrixE"
 "_ZTVN4Rcpp14not_compatibleE"
 "_ZTVN4Rcpp19index_out_of_boundsE"
 "_ZTVN4Rcpp8RostreamILb0EEE"
 "_ZTVN4Rcpp8RostreamILb1EEE"
 "_ZTVN4Rcpp9exceptionE"
 "_ZZ7dataptrP7SEXPRECE3fun"
 "_ZZN4arma16arma_cerr_streamIcEERSoPSoE11cerr_stream"
 "_ZZN8Progress17monitor_singletonEvE1p"
 "_ZZN8Progress20default_progress_barEvE2pb"
